target datalayout = "e-m:e-p270:32:32-p271:32:32-p272:64:64-i64:64-i128:128-f80:128-n8:16:32:64-S128"
target triple = "x86_64-pc-linux-gnu"

%struct.jit_State = type { %struct.GCtrace, ptr, ptr, ptr, ptr, ptr, ptr, i32, i32, i32, i8, i8, %struct.IRType1, i8, %struct.FoldState, ptr, i32, i32, i32, i32, i32, i32, i32, [1 x i32], [5 x %union.TValue], [3 x %union.TValue], ptr, i32, i32, i32, i32, ptr, ptr, i32, i32, i8, ptr, i32, i32, i16, [101 x i16], [258 x i32], [15 x i32], [16 x ptr], [64 x %struct.HotPenalty], i32, [16 x %struct.BPropEntry], i32, %struct.ScEvEntry, ptr, i32, i32, i32, ptr, i32, i32, ptr, ptr, ptr, i64, i64, %union.TValue, ptr, i32, i32 }
%struct.GCtrace = type { %struct.GCRef, i8, i8, i16, i32, i32, %struct.GCRef, ptr, i32, i32, ptr, ptr, %struct.GCRef, %struct.MRef, i32, i32, ptr, i32, i16, i16, i16, i16, i16, i16, i16, i8, i8, i8, i8 }
%struct.GCRef = type { i64 }
%struct.MRef = type { i64 }
%struct.IRType1 = type { i8 }
%struct.FoldState = type { %union.IRIns, [2 x %union.IRIns], [2 x %union.IRIns] }
%union.IRIns = type { %struct.GCRef }
%struct.HotPenalty = type { %struct.MRef, i16, i16 }
%struct.BPropEntry = type { i16, i16, i32 }
%struct.ScEvEntry = type { %struct.MRef, i16, i16, i16, i16, %struct.IRType1, i8 }
%union.TValue = type { i64 }
%struct.GCproto = type { %struct.GCRef, i8, i8, i8, i8, i32, i32, %struct.GCRef, %struct.MRef, %struct.MRef, i32, i32, i32, i8, i8, i16, %struct.GCRef, i32, i32, %struct.MRef, %struct.MRef, %struct.MRef }

; Function Attrs: nounwind uwtable
define internal void @rec_func_setup(ptr noundef %0) #0 {
  %2 = alloca ptr, align 8
  %3 = alloca ptr, align 8
  %4 = alloca i32, align 4
  %5 = alloca i32, align 4
  store ptr %0, ptr %2, align 8, !tbaa !4
  call void @llvm.lifetime.start.p0(i64 8, ptr %3) #9
  %6 = load ptr, ptr %2, align 8, !tbaa !4
  %7 = getelementptr inbounds nuw %struct.jit_State, ptr %6, i32 0, i32 5
  %8 = load ptr, ptr %7, align 8, !tbaa !65
  store ptr %8, ptr %3, align 8, !tbaa !71
  call void @llvm.lifetime.start.p0(i64 4, ptr %4) #9
  call void @llvm.lifetime.start.p0(i64 4, ptr %5) #9
  %9 = load ptr, ptr %3, align 8, !tbaa !71
  %10 = getelementptr inbounds nuw %struct.GCproto, ptr %9, i32 0, i32 3
  %11 = load i8, ptr %10, align 2, !tbaa !150
  %12 = zext i8 %11 to i32
  store i32 %12, ptr %5, align 4, !tbaa !9
  %13 = load ptr, ptr %3, align 8, !tbaa !71
  %14 = getelementptr inbounds nuw %struct.GCproto, ptr %13, i32 0, i32 14
  %15 = load i8, ptr %14, align 1, !tbaa !72
  %16 = zext i8 %15 to i32
  %17 = and i32 %16, 8
  %18 = icmp ne i32 %17, 0
  br i1 %18, label %19, label %21

19:                                               ; preds = %1
  %20 = load ptr, ptr %2, align 8, !tbaa !4
  call void @lj_trace_err(ptr noundef %20, i32 noundef 12) #10
  unreachable

21:                                               ; preds = %1
  %22 = load ptr, ptr %2, align 8, !tbaa !4
  %23 = getelementptr inbounds nuw %struct.jit_State, ptr %22, i32 0, i32 9
  %24 = load i32, ptr %23, align 8, !tbaa !43
  %25 = load ptr, ptr %3, align 8, !tbaa !71
  %26 = getelementptr inbounds nuw %struct.GCproto, ptr %25, i32 0, i32 4
  %27 = load i8, ptr %26, align 1, !tbaa !75
  %28 = zext i8 %27 to i32
  %29 = add i32 %24, %28
  %30 = icmp uge i32 %29, 250
  br i1 %30, label %31, label %33

31:                                               ; preds = %21
  %32 = load ptr, ptr %2, align 8, !tbaa !4
  call void @lj_trace_err(ptr noundef %32, i32 noundef 3) #10
  unreachable

33:                                               ; preds = %21
  %34 = load ptr, ptr %2, align 8, !tbaa !4
  %35 = getelementptr inbounds nuw %struct.jit_State, ptr %34, i32 0, i32 8
  %36 = load i32, ptr %35, align 4, !tbaa !44
  store i32 %36, ptr %4, align 4, !tbaa !9
  br label %37

37:                                               ; preds = %48, %33
  %38 = load i32, ptr %4, align 4, !tbaa !9
  %39 = load i32, ptr %5, align 4, !tbaa !9
  %40 = icmp ult i32 %38, %39
  br i1 %40, label %41, label %51

41:                                               ; preds = %37
  %42 = load ptr, ptr %2, align 8, !tbaa !4
  %43 = getelementptr inbounds nuw %struct.jit_State, ptr %42, i32 0, i32 6
  %44 = load ptr, ptr %43, align 8, !tbaa !50
  %45 = load i32, ptr %4, align 4, !tbaa !9
  %46 = zext i32 %45 to i64
  %47 = getelementptr inbounds nuw i32, ptr %44, i64 %46
  store i32 32767, ptr %47, align 4, !tbaa !9
  br label %48

48:                                               ; preds = %41
  %49 = load i32, ptr %4, align 4, !tbaa !9
  %50 = add i32 %49, 1
  store i32 %50, ptr %4, align 4, !tbaa !9
  br label %37, !llvm.loop !228

51:                                               ; preds = %37
  %52 = load i32, ptr %5, align 4, !tbaa !9
  %53 = load ptr, ptr %2, align 8, !tbaa !4
  %54 = getelementptr inbounds nuw %struct.jit_State, ptr %53, i32 0, i32 8
  store i32 %52, ptr %54, align 4, !tbaa !44
  call void @llvm.lifetime.end.p0(i64 4, ptr %5) #9
  call void @llvm.lifetime.end.p0(i64 4, ptr %4) #9
  call void @llvm.lifetime.end.p0(i64 8, ptr %3) #9
  ret void
}

; Function Attrs: nounwind uwtable
define internal void @rec_func_jit(ptr noundef %0, i32 noundef %1) #0 {
  %3 = alloca ptr, align 8
  %4 = alloca i32, align 4
  %5 = alloca ptr, align 8
  %6 = alloca i32, align 4
  store ptr %0, ptr %3, align 8, !tbaa !4
  store i32 %1, ptr %4, align 4, !tbaa !9
  call void @llvm.lifetime.start.p0(i64 8, ptr %5) #9
  %7 = load ptr, ptr %3, align 8, !tbaa !4
  call void @rec_func_setup(ptr noundef %7)
  %8 = load ptr, ptr %3, align 8, !tbaa !4
  %9 = getelementptr inbounds nuw %struct.jit_State, ptr %8, i32 0, i32 36
  %10 = load ptr, ptr %9, align 8, !tbaa !136
  %11 = load i32, ptr %4, align 4, !tbaa !9
  %12 = zext i32 %11 to i64
  %13 = getelementptr inbounds nuw %struct.GCRef, ptr %10, i64 %12
  %14 = getelementptr inbounds nuw %struct.GCRef, ptr %13, i32 0, i32 0
  %15 = load i64, ptr %14, align 8, !tbaa !93
  %16 = inttoptr i64 %15 to ptr
  store ptr %16, ptr %5, align 8, !tbaa !163
  %17 = load ptr, ptr %5, align 8, !tbaa !163
  %18 = getelementptr inbounds nuw %struct.GCtrace, ptr %17, i32 0, i32 27
  %19 = load i8, ptr %18, align 4, !tbaa !164
  %20 = zext i8 %19 to i32
  %21 = icmp eq i32 %20, 7
  br i1 %21, label %22, label %42

22:                                               ; preds = %2
  %23 = load ptr, ptr %3, align 8, !tbaa !4
  %24 = load i32, ptr %4, align 4, !tbaa !9
  call void @check_call_unroll(ptr noundef %23, i32 noundef %24)
  %25 = load ptr, ptr %3, align 8, !tbaa !4
  %26 = getelementptr inbounds nuw %struct.jit_State, ptr %25, i32 0, i32 3
  %27 = load ptr, ptr %26, align 8, !tbaa !66
  %28 = load i32, ptr %27, align 4, !tbaa !9
  %29 = load ptr, ptr %3, align 8, !tbaa !4
  %30 = getelementptr inbounds nuw %struct.jit_State, ptr %29, i32 0, i32 54
  store i32 %28, ptr %30, align 8, !tbaa !165
  %31 = load ptr, ptr %3, align 8, !tbaa !4
  %32 = getelementptr inbounds nuw %struct.jit_State, ptr %31, i32 0, i32 3
  %33 = load ptr, ptr %32, align 8, !tbaa !66
  %34 = load ptr, ptr %3, align 8, !tbaa !4
  %35 = getelementptr inbounds nuw %struct.jit_State, ptr %34, i32 0, i32 53
  store ptr %33, ptr %35, align 8, !tbaa !166
  %36 = load ptr, ptr %5, align 8, !tbaa !163
  %37 = getelementptr inbounds nuw %struct.GCtrace, ptr %36, i32 0, i32 14
  %38 = load i32, ptr %37, align 8, !tbaa !137
  %39 = load ptr, ptr %3, align 8, !tbaa !4
  %40 = getelementptr inbounds nuw %struct.jit_State, ptr %39, i32 0, i32 53
  %41 = load ptr, ptr %40, align 8, !tbaa !166
  store i32 %38, ptr %41, align 4, !tbaa !9
  store i32 1, ptr %6, align 4
  br label %72

42:                                               ; preds = %2
  %43 = load ptr, ptr %3, align 8, !tbaa !4
  %44 = getelementptr inbounds nuw %struct.jit_State, ptr %43, i32 0, i32 18
  store i32 0, ptr %44, align 8, !tbaa !162
  %45 = load ptr, ptr %3, align 8, !tbaa !4
  %46 = getelementptr inbounds nuw %struct.jit_State, ptr %45, i32 0, i32 3
  %47 = load ptr, ptr %46, align 8, !tbaa !66
  %48 = load ptr, ptr %3, align 8, !tbaa !4
  %49 = getelementptr inbounds nuw %struct.jit_State, ptr %48, i32 0, i32 49
  %50 = load ptr, ptr %49, align 8, !tbaa !80
  %51 = icmp eq ptr %47, %50
  br i1 %51, label %52, label %68

52:                                               ; preds = %42
  %53 = load ptr, ptr %3, align 8, !tbaa !4
  %54 = getelementptr inbounds nuw %struct.jit_State, ptr %53, i32 0, i32 21
  %55 = load i32, ptr %54, align 4, !tbaa !37
  %56 = load ptr, ptr %3, align 8, !tbaa !4
  %57 = getelementptr inbounds nuw %struct.jit_State, ptr %56, i32 0, i32 22
  %58 = load i32, ptr %57, align 8, !tbaa !38
  %59 = add nsw i32 %55, %58
  %60 = icmp eq i32 %59, 0
  br i1 %60, label %61, label %68

61:                                               ; preds = %52
  %62 = load ptr, ptr %3, align 8, !tbaa !4
  %63 = load ptr, ptr %3, align 8, !tbaa !4
  %64 = getelementptr inbounds nuw %struct.jit_State, ptr %63, i32 0, i32 0
  %65 = getelementptr inbounds nuw %struct.GCtrace, ptr %64, i32 0, i32 20
  %66 = load i16, ptr %65, align 8, !tbaa !36
  %67 = zext i16 %66 to i32
  call void @lj_record_stop(ptr noundef %62, i32 noundef 3, i32 noundef %67)
  br label %71

68:                                               ; preds = %52, %42
  %69 = load ptr, ptr %3, align 8, !tbaa !4
  %70 = load i32, ptr %4, align 4, !tbaa !9
  call void @lj_record_stop(ptr noundef %69, i32 noundef 1, i32 noundef %70)
  br label %71

71:                                               ; preds = %68, %61
  store i32 0, ptr %6, align 4
  br label %72

72:                                               ; preds = %71, %22
  call void @llvm.lifetime.end.p0(i64 8, ptr %5) #9
  %73 = load i32, ptr %6, align 4
  switch i32 %73, label %75 [
    i32 0, label %74
    i32 1, label %74
  ]

74:                                               ; preds = %72, %72
  ret void

75:                                               ; preds = %72
  unreachable
}