; Function Attrs: nounwind uwtable
define internal fastcc void @rec_func_jit(ptr noundef %0, i32 noundef %1) unnamed_addr #0 {
  %3 = getelementptr inbounds nuw i8, ptr %0, i64 152
  %4 = load ptr, ptr %3, align 8, !tbaa !60
  %5 = getelementptr inbounds nuw i8, ptr %4, i64 10
  %6 = load i8, ptr %5, align 2, !tbaa !153
  %7 = zext i8 %6 to i32
  %8 = getelementptr inbounds nuw i8, ptr %4, i64 61
  %9 = load i8, ptr %8, align 1, !tbaa !54
  %10 = and i8 %9, 8
  %.not.i = icmp eq i8 %10, 0
  br i1 %.not.i, label %12, label %11

11:                                               ; preds = %2
  tail call void @lj_trace_err(ptr noundef nonnull %0, i32 noundef 12) #9
  unreachable

12:                                               ; preds = %2
  %13 = getelementptr inbounds nuw i8, ptr %0, i64 176
  %14 = load i32, ptr %13, align 8, !tbaa !35
  %15 = getelementptr inbounds nuw i8, ptr %4, i64 11
  %16 = load i8, ptr %15, align 1, !tbaa !66
  %17 = zext i8 %16 to i32
  %18 = add i32 %14, %17
  %19 = icmp ugt i32 %18, 249
  br i1 %19, label %20, label %21

20:                                               ; preds = %12
  tail call void @lj_trace_err(ptr noundef nonnull %0, i32 noundef 3) #9
  unreachable

21:                                               ; preds = %12
  %22 = getelementptr inbounds nuw i8, ptr %0, i64 172
  %23 = load i32, ptr %22, align 4, !tbaa !36
  %24 = icmp ult i32 %23, %7
  br i1 %24, label %.lr.ph.i, label %rec_func_setup.exit

.lr.ph.i:                                         ; preds = %21
  %25 = getelementptr inbounds nuw i8, ptr %0, i64 160
  %26 = load ptr, ptr %25, align 8, !tbaa !43
  %27 = zext nneg i32 %23 to i64
  %wide.trip.count.i = zext i8 %6 to i64
  br label %28

28:                                               ; preds = %28, %.lr.ph.i
  %indvars.iv.i = phi i64 [ %27, %.lr.ph.i ], [ %indvars.iv.next.i, %28 ]
  %29 = getelementptr inbounds nuw i32, ptr %26, i64 %indvars.iv.i
  store i32 32767, ptr %29, align 4, !tbaa !37
  %indvars.iv.next.i = add nuw nsw i64 %indvars.iv.i, 1
  %exitcond.not.i = icmp eq i64 %indvars.iv.next.i, %wide.trip.count.i
  br i1 %exitcond.not.i, label %rec_func_setup.exit, label %28, !llvm.loop !170

rec_func_setup.exit:                              ; preds = %28, %21
  store i32 %7, ptr %22, align 4, !tbaa !36
  %30 = getelementptr inbounds nuw i8, ptr %0, i64 384
  %31 = load ptr, ptr %30, align 8, !tbaa !119
  %32 = zext i32 %1 to i64
  %33 = getelementptr inbounds nuw %struct.GCRef, ptr %31, i64 %32
  %34 = load i64, ptr %33, align 8, !tbaa !79
  %35 = inttoptr i64 %34 to ptr
  %36 = getelementptr inbounds nuw i8, ptr %35, i64 116
  %37 = load i8, ptr %36, align 4, !tbaa !171
  %38 = icmp eq i8 %37, 7
  br i1 %38, label %39, label %47

39:                                               ; preds = %rec_func_setup.exit
  tail call fastcc void @check_call_unroll(ptr noundef nonnull %0, i32 noundef %1)
  %40 = getelementptr inbounds nuw i8, ptr %0, i64 136
  %41 = load ptr, ptr %40, align 8, !tbaa !61
  %42 = load i32, ptr %41, align 4, !tbaa !37
  %43 = getelementptr inbounds nuw i8, ptr %0, i64 3040
  store i32 %42, ptr %43, align 8, !tbaa !172
  %44 = getelementptr inbounds nuw i8, ptr %0, i64 3032
  store ptr %41, ptr %44, align 8, !tbaa !173
  %45 = getelementptr inbounds nuw i8, ptr %35, i64 80
  %46 = load i32, ptr %45, align 8, !tbaa !120
  store i32 %46, ptr %41, align 4, !tbaa !37
  br label %66

47:                                               ; preds = %rec_func_setup.exit
  %48 = getelementptr inbounds nuw i8, ptr %0, i64 240
  store i32 0, ptr %48, align 8, !tbaa !169
  %49 = getelementptr inbounds nuw i8, ptr %0, i64 136
  %50 = load ptr, ptr %49, align 8, !tbaa !61
  %51 = getelementptr inbounds nuw i8, ptr %0, i64 3008
  %52 = load ptr, ptr %51, align 8, !tbaa !77
  %53 = icmp eq ptr %50, %52
  br i1 %53, label %54, label %65

54:                                               ; preds = %47
  %55 = getelementptr inbounds nuw i8, ptr %0, i64 252
  %56 = load i32, ptr %55, align 4, !tbaa !31
  %57 = getelementptr inbounds nuw i8, ptr %0, i64 256
  %58 = load i32, ptr %57, align 8, !tbaa !32
  %59 = sub i32 0, %58
  %60 = icmp eq i32 %56, %59
  br i1 %60, label %61, label %65

61:                                               ; preds = %54
  %62 = getelementptr inbounds nuw i8, ptr %0, i64 104
  %63 = load i16, ptr %62, align 8, !tbaa !30
  %64 = zext i16 %63 to i32
  tail call void @lj_record_stop(ptr noundef nonnull %0, i32 noundef 3, i32 noundef %64)
  br label %66

65:                                               ; preds = %54, %47
  tail call void @lj_record_stop(ptr noundef nonnull %0, i32 noundef 1, i32 noundef %1)
  br label %66

66:                                               ; preds = %61, %65, %39
  ret void
}